target datalayout = "e-m:e-p270:32:32-p271:32:32-p272:64:64-i64:64-i128:128-f80:128-n8:16:32:64-S128"
target triple = "x86_64-unknown-linux-gnu"

%"class.proxygen::Exception" = type { %"class.std::exception", %"class.std::__cxx11::basic_string", i32, i32 }
%"class.std::exception" = type { ptr }
%"class.std::__cxx11::basic_string" = type { %"struct.std::__cxx11::basic_string<char>::_Alloc_hider", i64, %union.anon }
%"struct.std::__cxx11::basic_string<char>::_Alloc_hider" = type { ptr }
%union.anon = type { i64, [8 x i8] }

@_ZTVN8proxygen9ExceptionE = unnamed_addr constant { [5 x ptr] } { [5 x ptr] [ptr null, ptr @_ZTIN8proxygen9ExceptionE, ptr @_ZN8proxygen9ExceptionD2Ev, ptr @_ZN8proxygen9ExceptionD0Ev, ptr @_ZNK8proxygen9Exception4whatEv] }, align 8
@_ZTVSt9exception = external unnamed_addr constant { [5 x ptr] }, align 8

; Function Attrs: mustprogress nounwind uwtable
define linkonce_odr void @_ZNSt9exceptionC2Ev(ptr noundef nonnull align 8 dereferenceable(8) %this) unnamed_addr #1 comdat align 2 {
entry:
  %this.addr = alloca ptr, align 8
  store ptr %this, ptr %this.addr, align 8
  %this1 = load ptr, ptr %this.addr, align 8
  store ptr getelementptr inbounds ({ [5 x ptr] }, ptr @_ZTVSt9exception, i32 0, i32 0, i32 2), ptr %this1, align 8
  ret void
}

; Function Attrs: mustprogress uwtable
define void @_ZN8proxygen9ExceptionC2ERKS0_(ptr noundef nonnull align 8 dereferenceable(48) %this, ptr noundef nonnull align 8 dereferenceable(48) %other) unnamed_addr #0 align 2 personality ptr @__gxx_personality_v0 {
entry:
  %this.addr = alloca ptr, align 8
  %other.addr = alloca ptr, align 8
  %exn.slot = alloca ptr, align 8
  %ehselector.slot = alloca i32, align 4
  store ptr %this, ptr %this.addr, align 8
  store ptr %other, ptr %other.addr, align 8
  %this1 = load ptr, ptr %this.addr, align 8
  call void @_ZNSt9exceptionC2Ev(ptr noundef nonnull align 8 dereferenceable(8) %this1) #7
  store ptr getelementptr inbounds ({ [5 x ptr] }, ptr @_ZTVN8proxygen9ExceptionE, i32 0, i32 0, i32 2), ptr %this1, align 8
  %msg_ = getelementptr inbounds %"class.proxygen::Exception", ptr %this1, i32 0, i32 1
  %0 = load ptr, ptr %other.addr, align 8
  %msg_2 = getelementptr inbounds %"class.proxygen::Exception", ptr %0, i32 0, i32 1
  invoke void @_ZNSt7__cxx1112basic_stringIcSt11char_traitsIcESaIcEEC1ERKS4_(ptr noundef nonnull align 8 dereferenceable(32) %msg_, ptr noundef nonnull align 8 dereferenceable(32) %msg_2)
          to label %invoke.cont unwind label %lpad

invoke.cont:                                      ; preds = %entry
  %code_ = getelementptr inbounds %"class.proxygen::Exception", ptr %this1, i32 0, i32 2
  %1 = load ptr, ptr %other.addr, align 8
  %code_3 = getelementptr inbounds %"class.proxygen::Exception", ptr %1, i32 0, i32 2
  %2 = load i32, ptr %code_3, align 8
  store i32 %2, ptr %code_, align 8
  %proxygenError_ = getelementptr inbounds %"class.proxygen::Exception", ptr %this1, i32 0, i32 3
  %3 = load ptr, ptr %other.addr, align 8
  %proxygenError_4 = getelementptr inbounds %"class.proxygen::Exception", ptr %3, i32 0, i32 3
  %4 = load i32, ptr %proxygenError_4, align 4
  store i32 %4, ptr %proxygenError_, align 4
  ret void

lpad:                                             ; preds = %entry
  %5 = landingpad { ptr, i32 }
          cleanup
  %6 = extractvalue { ptr, i32 } %5, 0
  store ptr %6, ptr %exn.slot, align 8
  %7 = extractvalue { ptr, i32 } %5, 1
  store i32 %7, ptr %ehselector.slot, align 4
  call void @_ZNSt9exceptionD2Ev(ptr noundef nonnull align 8 dereferenceable(8) %this1) #7
  br label %eh.resume

eh.resume:                                        ; preds = %lpad
  %exn = load ptr, ptr %exn.slot, align 8
  %sel = load i32, ptr %ehselector.slot, align 4
  %lpad.val = insertvalue { ptr, i32 } poison, ptr %exn, 0
  %lpad.val5 = insertvalue { ptr, i32 } %lpad.val, i32 %sel, 1
  resume { ptr, i32 } %lpad.val5
}