; Function Attrs: mustprogress uwtable
define void @_ZN8proxygen9ExceptionC2ERKS0_(ptr noundef nonnull align 8 dereferenceable(48) %this, ptr noundef nonnull align 8 dereferenceable(48) %other) unnamed_addr #0 align 2 personality ptr @__gxx_personality_v0 {
entry:
  store ptr getelementptr inbounds ({ [5 x ptr] }, ptr @_ZTVN8proxygen9ExceptionE, i64 0, i32 0, i64 2), ptr %this, align 8
  %msg_ = getelementptr inbounds i8, ptr %this, i64 8
  %msg_2 = getelementptr inbounds i8, ptr %other, i64 8
  invoke void @_ZNSt7__cxx1112basic_stringIcSt11char_traitsIcESaIcEEC1ERKS4_(ptr noundef nonnull align 8 dereferenceable(32) %msg_, ptr noundef nonnull align 8 dereferenceable(32) %msg_2)
          to label %invoke.cont unwind label %lpad

invoke.cont:                                      ; preds = %entry
  %code_ = getelementptr inbounds i8, ptr %this, i64 40
  %code_3 = getelementptr inbounds i8, ptr %other, i64 40
  %0 = load i32, ptr %code_3, align 8
  store i32 %0, ptr %code_, align 8
  %proxygenError_ = getelementptr inbounds i8, ptr %this, i64 44
  %proxygenError_4 = getelementptr inbounds i8, ptr %other, i64 44
  %1 = load i32, ptr %proxygenError_4, align 4
  store i32 %1, ptr %proxygenError_, align 4
  ret void

lpad:                                             ; preds = %entry
  %2 = landingpad { ptr, i32 }
          cleanup
  tail call void @_ZNSt9exceptionD2Ev(ptr noundef nonnull align 8 dereferenceable(8) %this) #8
  resume { ptr, i32 } %2
}